target datalayout = "e-m:e-p270:32:32-p271:32:32-p272:64:64-i64:64-i128:128-f80:128-n8:16:32:64-S128"
target triple = "x86_64-pc-linux-gnu"

%struct.AVChannelLayout = type { i32, i32, %union.anon.1, ptr }
%union.anon.1 = type { i64 }
%struct.AVRational = type { i32, i32 }
%struct.AVFrame = type { [8 x ptr], [8 x i32], ptr, i32, i32, i32, i32, i32, %struct.AVRational, i64, i64, %struct.AVRational, i32, ptr, i32, i32, [8 x ptr], ptr, i32, ptr, i32, i32, i32, i32, i32, i32, i32, i64, ptr, i32, ptr, ptr, i64, i64, i64, i64, ptr, %struct.AVChannelLayout, i64 }

; Function Attrs: nounwind uwtable
define internal i32 @is_same4(ptr noundef %0, i32 noundef %1, i32 noundef %2, i32 noundef %3, i32 noundef %4, i32 noundef %5, i32 noundef %6) #1 {
  %8 = alloca i32, align 4
  %9 = alloca ptr, align 8
  %10 = alloca i32, align 4
  %11 = alloca i32, align 4
  %12 = alloca i32, align 4
  %13 = alloca i32, align 4
  %14 = alloca i32, align 4
  %15 = alloca i32, align 4
  %16 = alloca i32, align 4
  %17 = alloca i32, align 4
  %18 = alloca i32, align 4
  %19 = alloca i32, align 4
  %20 = alloca i32, align 4
  store ptr %0, ptr %9, align 8, !tbaa !26
  store i32 %1, ptr %10, align 4, !tbaa !36
  store i32 %2, ptr %11, align 4, !tbaa !36
  store i32 %3, ptr %12, align 4, !tbaa !36
  store i32 %4, ptr %13, align 4, !tbaa !36
  store i32 %5, ptr %14, align 4, !tbaa !36
  store i32 %6, ptr %15, align 4, !tbaa !36
  call void @llvm.lifetime.start.p0(i64 4, ptr %16) #4
  %21 = load ptr, ptr %9, align 8, !tbaa !26
  %22 = getelementptr inbounds nuw %struct.AVFrame, ptr %21, i32 0, i32 0
  %23 = getelementptr inbounds [8 x ptr], ptr %22, i64 0, i64 0
  %24 = load ptr, ptr %23, align 8, !tbaa !70
  %25 = load i32, ptr %11, align 4, !tbaa !36
  %26 = load ptr, ptr %9, align 8, !tbaa !26
  %27 = getelementptr inbounds nuw %struct.AVFrame, ptr %26, i32 0, i32 1
  %28 = getelementptr inbounds [8 x i32], ptr %27, i64 0, i64 0
  %29 = load i32, ptr %28, align 8, !tbaa !36
  %30 = mul nsw i32 %25, %29
  %31 = load i32, ptr %10, align 4, !tbaa !36
  %32 = add nsw i32 %30, %31
  %33 = sext i32 %32 to i64
  %34 = getelementptr inbounds i8, ptr %24, i64 %33
  %35 = load i8, ptr %34, align 1, !tbaa !71
  %36 = zext i8 %35 to i32
  store i32 %36, ptr %16, align 4, !tbaa !36
  call void @llvm.lifetime.start.p0(i64 4, ptr %17) #4
  %37 = load ptr, ptr %9, align 8, !tbaa !26
  %38 = getelementptr inbounds nuw %struct.AVFrame, ptr %37, i32 0, i32 0
  %39 = getelementptr inbounds [8 x ptr], ptr %38, i64 0, i64 1
  %40 = load ptr, ptr %39, align 8, !tbaa !70
  %41 = load i32, ptr %11, align 4, !tbaa !36
  %42 = load ptr, ptr %9, align 8, !tbaa !26
  %43 = getelementptr inbounds nuw %struct.AVFrame, ptr %42, i32 0, i32 1
  %44 = getelementptr inbounds [8 x i32], ptr %43, i64 0, i64 1
  %45 = load i32, ptr %44, align 4, !tbaa !36
  %46 = mul nsw i32 %41, %45
  %47 = load i32, ptr %10, align 4, !tbaa !36
  %48 = add nsw i32 %46, %47
  %49 = sext i32 %48 to i64
  %50 = getelementptr inbounds i8, ptr %40, i64 %49
  %51 = load i8, ptr %50, align 1, !tbaa !71
  %52 = zext i8 %51 to i32
  store i32 %52, ptr %17, align 4, !tbaa !36
  call void @llvm.lifetime.start.p0(i64 4, ptr %18) #4
  %53 = load ptr, ptr %9, align 8, !tbaa !26
  %54 = getelementptr inbounds nuw %struct.AVFrame, ptr %53, i32 0, i32 0
  %55 = getelementptr inbounds [8 x ptr], ptr %54, i64 0, i64 2
  %56 = load ptr, ptr %55, align 8, !tbaa !70
  %57 = load i32, ptr %11, align 4, !tbaa !36
  %58 = load ptr, ptr %9, align 8, !tbaa !26
  %59 = getelementptr inbounds nuw %struct.AVFrame, ptr %58, i32 0, i32 1
  %60 = getelementptr inbounds [8 x i32], ptr %59, i64 0, i64 2
  %61 = load i32, ptr %60, align 8, !tbaa !36
  %62 = mul nsw i32 %57, %61
  %63 = load i32, ptr %10, align 4, !tbaa !36
  %64 = add nsw i32 %62, %63
  %65 = sext i32 %64 to i64
  %66 = getelementptr inbounds i8, ptr %56, i64 %65
  %67 = load i8, ptr %66, align 1, !tbaa !71
  %68 = zext i8 %67 to i32
  store i32 %68, ptr %18, align 4, !tbaa !36
  call void @llvm.lifetime.start.p0(i64 4, ptr %19) #4
  %69 = load ptr, ptr %9, align 8, !tbaa !26
  %70 = getelementptr inbounds nuw %struct.AVFrame, ptr %69, i32 0, i32 0
  %71 = getelementptr inbounds [8 x ptr], ptr %70, i64 0, i64 3
  %72 = load ptr, ptr %71, align 8, !tbaa !70
  %73 = load i32, ptr %11, align 4, !tbaa !36
  %74 = load ptr, ptr %9, align 8, !tbaa !26
  %75 = getelementptr inbounds nuw %struct.AVFrame, ptr %74, i32 0, i32 1
  %76 = getelementptr inbounds [8 x i32], ptr %75, i64 0, i64 3
  %77 = load i32, ptr %76, align 4, !tbaa !36
  %78 = mul nsw i32 %73, %77
  %79 = load i32, ptr %10, align 4, !tbaa !36
  %80 = add nsw i32 %78, %79
  %81 = sext i32 %80 to i64
  %82 = getelementptr inbounds i8, ptr %72, i64 %81
  %83 = load i8, ptr %82, align 1, !tbaa !71
  %84 = zext i8 %83 to i32
  store i32 %84, ptr %19, align 4, !tbaa !36
  %85 = load i32, ptr %12, align 4, !tbaa !36
  %86 = load i32, ptr %16, align 4, !tbaa !36
  %87 = icmp eq i32 %85, %86
  br i1 %87, label %88, label %101

88:                                               ; preds = %7
  %89 = load i32, ptr %13, align 4, !tbaa !36
  %90 = load i32, ptr %17, align 4, !tbaa !36
  %91 = icmp eq i32 %89, %90
  br i1 %91, label %92, label %101

92:                                               ; preds = %88
  %93 = load i32, ptr %14, align 4, !tbaa !36
  %94 = load i32, ptr %18, align 4, !tbaa !36
  %95 = icmp eq i32 %93, %94
  br i1 %95, label %96, label %101

96:                                               ; preds = %92
  %97 = load i32, ptr %15, align 4, !tbaa !36
  %98 = load i32, ptr %19, align 4, !tbaa !36
  %99 = icmp eq i32 %97, %98
  br i1 %99, label %100, label %101

100:                                              ; preds = %96
  store i32 1, ptr %8, align 4
  store i32 1, ptr %20, align 4
  br label %102

101:                                              ; preds = %96, %92, %88, %7
  store i32 0, ptr %8, align 4
  store i32 1, ptr %20, align 4
  br label %102

102:                                              ; preds = %101, %100
  call void @llvm.lifetime.end.p0(i64 4, ptr %19) #4
  call void @llvm.lifetime.end.p0(i64 4, ptr %18) #4
  call void @llvm.lifetime.end.p0(i64 4, ptr %17) #4
  call void @llvm.lifetime.end.p0(i64 4, ptr %16) #4
  %103 = load i32, ptr %8, align 4
  ret i32 %103
}